; Function Attrs: mustprogress uwtable
define internal void @"_ZN4LuauL8fnVisitVIZNS_16toStringDetailedEPKNS_11TypePackVarERNS_15ToStringOptionsEE3$_0KNS_9TableTypeEEEvRT_PNSt11conditionalIXsr3stdE10is_const_vIT0_EEKvvE4typeE"(ptr noundef nonnull readonly align 8 captures(none) dereferenceable(16) %0, ptr noundef nonnull %1) #6 personality ptr @__gxx_personality_v0 {
  %3 = alloca %"struct.Luau::TableType", align 8
  call void @_ZN4Luau9TableTypeC2ERKS0_(ptr noundef nonnull align 8 dereferenceable(336) %3, ptr noundef nonnull align 8 dereferenceable(336) %1)
  %.val = load ptr, ptr %0, align 8, !tbaa !652
  %4 = getelementptr inbounds nuw i8, ptr %0, i64 8
  %.val3 = load ptr, ptr %4, align 8, !tbaa !250
  invoke void @_ZN4Luau15TypeStringifierclEPKNS_4TypeERKNS_9TableTypeE(ptr noundef nonnull align 8 dereferenceable(8) %.val, ptr noundef %.val3, ptr noundef nonnull align 8 dereferenceable(336) %3)
          to label %"_ZZN4Luau16toStringDetailedEPKNS_11TypePackVarERNS_15ToStringOptionsEENK3$_0clINS_9TableTypeEEEDaT_.exit" unwind label %5

"_ZZN4Luau16toStringDetailedEPKNS_11TypePackVarERNS_15ToStringOptionsEENK3$_0clINS_9TableTypeEEEDaT_.exit": ; preds = %2
  call void @_ZN4Luau9TableTypeD2Ev(ptr noundef nonnull align 8 dereferenceable(336) %3) #29
  ret void

5:                                                ; preds = %2
  %6 = landingpad { ptr, i32 }
          cleanup
  call void @_ZN4Luau9TableTypeD2Ev(ptr noundef nonnull align 8 dereferenceable(336) %3) #29
  resume { ptr, i32 } %6
}